; Function Attrs: mustprogress uwtable
define void @_ZN2cv7quality10QualityMSE7computeERKNS_11_InputArrayE(ptr dead_on_unwind noalias writable writeonly sret(%"class.cv::Scalar_") align 8 captures(none) %0, ptr noundef nonnull align 8 dereferenceable(168) %1, ptr noundef nonnull align 8 dereferenceable(24) %2) unnamed_addr #0 align 2 personality ptr @__gxx_personality_v0 {
  %4 = alloca %"class.cv::_OutputArray", align 8
  %5 = alloca %"class.cv::UMat", align 8
  %6 = alloca %"struct.std::pair", align 8
  %7 = alloca %"class.cv::_OutputArray", align 8
  call void @llvm.lifetime.start.p0(i64 80, ptr nonnull %5) #18
  tail call void @llvm.experimental.noalias.scope.decl(metadata !47)
  call void @_ZN2cv7quality13quality_utils11extract_matINS_4UMatEEET_RKNS_11_InputArrayEi(ptr dead_on_unwind nonnull writable sret(%"class.cv::UMat") align 8 %5, ptr noundef nonnull align 8 dereferenceable(24) %2, i32 noundef -1)
  %8 = load i32, ptr %5, align 8, !tbaa !6, !alias.scope !47
  %9 = and i32 %8, 7
  %.off.i = add nsw i32 %9, -4
  %switch.i = icmp ult i32 %.off.i, 3
  %spec.select.i = select i1 %switch.i, i32 6, i32 5
  call void @llvm.lifetime.start.p0(i64 24, ptr nonnull %4) #18, !noalias !47
  %10 = getelementptr inbounds nuw i8, ptr %4, i64 8
  %11 = getelementptr inbounds nuw i8, ptr %4, i64 16
  store i64 0, ptr %11, align 8, !noalias !47
  store i32 34209792, ptr %4, align 8, !tbaa !20, !noalias !47
  store ptr %5, ptr %10, align 8, !tbaa !23, !noalias !47
  invoke void @_ZNK2cv4UMat9convertToERKNS_12_OutputArrayEidd(ptr noundef nonnull align 8 dereferenceable(80) %5, ptr noundef nonnull align 8 dereferenceable(24) %4, i32 noundef %spec.select.i, double noundef 1.000000e+00, double noundef 0.000000e+00)
          to label %_ZN2cv7quality13quality_utils10expand_matINS_4UMatEEET_RKNS_11_InputArrayEi.exit unwind label %12

common.resume:                                    ; preds = %24, %12
  %common.resume.op = phi { ptr, i32 } [ %13, %12 ], [ %.pn7.pn, %24 ]
  resume { ptr, i32 } %common.resume.op

12:                                               ; preds = %3
  %13 = landingpad { ptr, i32 }
          cleanup
  call void @llvm.lifetime.end.p0(i64 24, ptr nonnull %4) #18, !noalias !47
  call void @_ZN2cv4UMatD1Ev(ptr noundef nonnull align 8 dereferenceable(80) %5) #18
  br label %common.resume

_ZN2cv7quality13quality_utils10expand_matINS_4UMatEEET_RKNS_11_InputArrayEi.exit: ; preds = %3
  call void @llvm.lifetime.end.p0(i64 24, ptr nonnull %4) #18, !noalias !47
  call void @llvm.lifetime.start.p0(i64 112, ptr nonnull %6) #18
  %14 = getelementptr inbounds nuw i8, ptr %1, i64 88
  invoke fastcc void @_ZN12_GLOBAL__N_17computeERKN2cv4UMatES3_(ptr dead_on_unwind noalias writable align 8 %6, ptr noundef nonnull align 8 dereferenceable(80) %14, ptr noundef nonnull align 8 dereferenceable(80) %5)
          to label %15 unwind label %20

15:                                               ; preds = %_ZN2cv7quality13quality_utils10expand_matINS_4UMatEEET_RKNS_11_InputArrayEi.exit
  call void @llvm.lifetime.start.p0(i64 24, ptr nonnull %7) #18
  %16 = getelementptr inbounds nuw i8, ptr %1, i64 8
  %17 = getelementptr inbounds nuw i8, ptr %7, i64 8
  %18 = getelementptr inbounds nuw i8, ptr %7, i64 16
  store i64 0, ptr %18, align 8
  store i32 34209792, ptr %7, align 8, !tbaa !20
  store ptr %16, ptr %17, align 8, !tbaa !23
  %19 = getelementptr inbounds nuw i8, ptr %6, i64 32
  invoke void @_ZNK2cv12_OutputArray6assignERKNS_4UMatE(ptr noundef nonnull align 8 dereferenceable(24) %7, ptr noundef nonnull align 8 dereferenceable(80) %19)
          to label %_ZN2cv7Scalar_IdEC2ERKS1_.exit unwind label %22

_ZN2cv7Scalar_IdEC2ERKS1_.exit:                   ; preds = %15
  call void @llvm.lifetime.end.p0(i64 24, ptr nonnull %7) #18
  call void @llvm.memcpy.p0.p0.i64(ptr noundef nonnull align 8 dereferenceable(32) %0, ptr noundef nonnull align 8 dereferenceable(32) %6, i64 32, i1 false), !tbaa !43
  call void @_ZN2cv4UMatD1Ev(ptr noundef nonnull align 8 dereferenceable(80) %19) #18
  call void @llvm.lifetime.end.p0(i64 112, ptr nonnull %6) #18
  call void @_ZN2cv4UMatD1Ev(ptr noundef nonnull align 8 dereferenceable(80) %5) #18
  call void @llvm.lifetime.end.p0(i64 80, ptr nonnull %5) #18
  ret void

20:                                               ; preds = %_ZN2cv7quality13quality_utils10expand_matINS_4UMatEEET_RKNS_11_InputArrayEi.exit
  %21 = landingpad { ptr, i32 }
          cleanup
  br label %24

22:                                               ; preds = %15
  %23 = landingpad { ptr, i32 }
          cleanup
  call void @llvm.lifetime.end.p0(i64 24, ptr nonnull %7) #18
  call void @_ZN2cv4UMatD1Ev(ptr noundef nonnull align 8 dereferenceable(80) %19) #18
  br label %24

24:                                               ; preds = %22, %20
  %.pn7.pn = phi { ptr, i32 } [ %23, %22 ], [ %21, %20 ]
  call void @llvm.lifetime.end.p0(i64 112, ptr nonnull %6) #18
  call void @_ZN2cv4UMatD1Ev(ptr noundef nonnull align 8 dereferenceable(80) %5) #18
  call void @llvm.lifetime.end.p0(i64 80, ptr nonnull %5) #18
  br label %common.resume
}